target datalayout = "e-m:e-p270:32:32-p271:32:32-p272:64:64-i64:64-i128:128-f80:128-n8:16:32:64-S128"
target triple = "x86_64-pc-linux-gnu"

%"class.std::_Sp_counted_base" = type { ptr, i32, i32 }
%"union.std::aligned_storage<24, 8>::type" = type { [24 x i8] }
%"class.std::type_info" = type { ptr, ptr }
%"class.std::_Sp_counted_ptr_inplace.291" = type { %"class.std::_Sp_counted_base", %"class.std::_Sp_counted_ptr_inplace<cv::cpu_baseline::(anonymous namespace)::MorphColumnFilter<cv::cpu_baseline::(anonymous namespace)::MaxOp<short>, cv::cpu_baseline::(anonymous namespace)::MorphColumnNoVec>, std::allocator<void>, __gnu_cxx::_S_atomic>::_Impl" }
%"class.std::_Sp_counted_ptr_inplace<cv::cpu_baseline::(anonymous namespace)::MorphColumnFilter<cv::cpu_baseline::(anonymous namespace)::MaxOp<short>, cv::cpu_baseline::(anonymous namespace)::MorphColumnNoVec>, std::allocator<void>, __gnu_cxx::_S_atomic>::_Impl" = type { %"struct.__gnu_cxx::__aligned_buffer.292" }
%"struct.__gnu_cxx::__aligned_buffer.292" = type { %"union.std::aligned_storage<24, 8>::type" }

@_ZTISt19_Sp_make_shared_tag = linkonce_odr constant { ptr, ptr } { ptr getelementptr inbounds (ptr, ptr @_ZTVN10__cxxabiv117__class_type_infoE, i64 2), ptr @_ZTSSt19_Sp_make_shared_tag }, comdat, align 8
@_ZZNSt19_Sp_make_shared_tag5_S_tiEvE5__tag = linkonce_odr constant [16 x i8] zeroinitializer, comdat, align 8

; Function Attrs: mustprogress nounwind uwtable
define internal noundef ptr @_ZN9__gnu_cxx16__aligned_bufferIN2cv12cpu_baseline12_GLOBAL__N_117MorphColumnFilterINS3_5MaxOpIsEENS3_16MorphColumnNoVecEEEE7_M_addrEv(ptr noundef nonnull align 8 dereferenceable(24) %0) #6 align 2 {
  %2 = alloca ptr, align 8
  store ptr %0, ptr %2, align 8
  %3 = load ptr, ptr %2, align 8
  %4 = getelementptr inbounds %"struct.__gnu_cxx::__aligned_buffer.292", ptr %3, i32 0, i32 0
  ret ptr %4
}

; Function Attrs: mustprogress nounwind uwtable
define linkonce_odr hidden noundef ptr @_ZNKSt9type_info4nameEv(ptr noundef nonnull align 8 dereferenceable(16) %0) #6 comdat align 2 {
  %2 = alloca ptr, align 8
  store ptr %0, ptr %2, align 8
  %3 = load ptr, ptr %2, align 8
  %4 = getelementptr inbounds %"class.std::type_info", ptr %3, i32 0, i32 1
  %5 = load ptr, ptr %4, align 8
  %6 = getelementptr inbounds i8, ptr %5, i64 0
  %7 = load i8, ptr %6, align 1
  %8 = sext i8 %7 to i32
  %9 = icmp eq i32 %8, 42
  br i1 %9, label %10, label %14

10:                                               ; preds = %1
  %11 = getelementptr inbounds %"class.std::type_info", ptr %3, i32 0, i32 1
  %12 = load ptr, ptr %11, align 8
  %13 = getelementptr inbounds i8, ptr %12, i64 1
  br label %17

14:                                               ; preds = %1
  %15 = getelementptr inbounds %"class.std::type_info", ptr %3, i32 0, i32 1
  %16 = load ptr, ptr %15, align 8
  br label %17

17:                                               ; preds = %14, %10
  %18 = phi ptr [ %13, %10 ], [ %16, %14 ]
  ret ptr %18
}

; Function Attrs: mustprogress nounwind uwtable
define internal noundef ptr @_ZN9__gnu_cxx16__aligned_bufferIN2cv12cpu_baseline12_GLOBAL__N_117MorphColumnFilterINS3_5MaxOpIsEENS3_16MorphColumnNoVecEEEE6_M_ptrEv(ptr noundef nonnull align 8 dereferenceable(24) %0) #6 align 2 {
  %2 = alloca ptr, align 8
  store ptr %0, ptr %2, align 8
  %3 = load ptr, ptr %2, align 8
  %4 = call noundef ptr @_ZN9__gnu_cxx16__aligned_bufferIN2cv12cpu_baseline12_GLOBAL__N_117MorphColumnFilterINS3_5MaxOpIsEENS3_16MorphColumnNoVecEEEE7_M_addrEv(ptr noundef nonnull align 8 dereferenceable(24) %3) #3
  ret ptr %4
}

; Function Attrs: mustprogress nounwind uwtable
define linkonce_odr hidden noundef zeroext i1 @_ZNKSt9type_infoeqERKS_(ptr noundef nonnull align 8 dereferenceable(16) %0, ptr noundef nonnull align 8 dereferenceable(16) %1) #6 comdat align 2 {
  %3 = alloca i1, align 1
  %4 = alloca ptr, align 8
  %5 = alloca ptr, align 8
  store ptr %0, ptr %4, align 8
  store ptr %1, ptr %5, align 8
  %6 = load ptr, ptr %4, align 8
  %7 = getelementptr inbounds %"class.std::type_info", ptr %6, i32 0, i32 1
  %8 = load ptr, ptr %7, align 8
  %9 = load ptr, ptr %5, align 8
  %10 = getelementptr inbounds %"class.std::type_info", ptr %9, i32 0, i32 1
  %11 = load ptr, ptr %10, align 8
  %12 = icmp eq ptr %8, %11
  br i1 %12, label %13, label %14

13:                                               ; preds = %2
  store i1 true, ptr %3, align 1
  br label %30

14:                                               ; preds = %2
  %15 = getelementptr inbounds %"class.std::type_info", ptr %6, i32 0, i32 1
  %16 = load ptr, ptr %15, align 8
  %17 = getelementptr inbounds i8, ptr %16, i64 0
  %18 = load i8, ptr %17, align 1
  %19 = sext i8 %18 to i32
  %20 = icmp ne i32 %19, 42
  br i1 %20, label %21, label %28

21:                                               ; preds = %14
  %22 = getelementptr inbounds %"class.std::type_info", ptr %6, i32 0, i32 1
  %23 = load ptr, ptr %22, align 8
  %24 = load ptr, ptr %5, align 8
  %25 = call noundef ptr @_ZNKSt9type_info4nameEv(ptr noundef nonnull align 8 dereferenceable(16) %24) #3
  %26 = call i32 @strcmp(ptr noundef %23, ptr noundef %25) #3
  %27 = icmp eq i32 %26, 0
  br label %28

28:                                               ; preds = %21, %14
  %29 = phi i1 [ false, %14 ], [ %27, %21 ]
  store i1 %29, ptr %3, align 1
  br label %30

30:                                               ; preds = %28, %13
  %31 = load i1, ptr %3, align 1
  ret i1 %31
}

; Function Attrs: mustprogress nounwind uwtable
define linkonce_odr noundef nonnull align 8 dereferenceable(16) ptr @_ZNSt19_Sp_make_shared_tag5_S_tiEv() #6 comdat align 2 {
  ret ptr @_ZZNSt19_Sp_make_shared_tag5_S_tiEvE5__tag
}

; Function Attrs: mustprogress nounwind uwtable
define internal noundef ptr @_ZNSt23_Sp_counted_ptr_inplaceIN2cv12cpu_baseline12_GLOBAL__N_117MorphColumnFilterINS2_5MaxOpIsEENS2_16MorphColumnNoVecEEESaIvELN9__gnu_cxx12_Lock_policyE2EE6_M_ptrEv(ptr noundef nonnull align 8 dereferenceable(40) %0) #6 align 2 {
  %2 = alloca ptr, align 8
  store ptr %0, ptr %2, align 8
  %3 = load ptr, ptr %2, align 8
  %4 = getelementptr inbounds %"class.std::_Sp_counted_ptr_inplace.291", ptr %3, i32 0, i32 1
  %5 = getelementptr inbounds %"class.std::_Sp_counted_ptr_inplace<cv::cpu_baseline::(anonymous namespace)::MorphColumnFilter<cv::cpu_baseline::(anonymous namespace)::MaxOp<short>, cv::cpu_baseline::(anonymous namespace)::MorphColumnNoVec>, std::allocator<void>, __gnu_cxx::_S_atomic>::_Impl", ptr %4, i32 0, i32 0
  %6 = call noundef ptr @_ZN9__gnu_cxx16__aligned_bufferIN2cv12cpu_baseline12_GLOBAL__N_117MorphColumnFilterINS3_5MaxOpIsEENS3_16MorphColumnNoVecEEEE6_M_ptrEv(ptr noundef nonnull align 8 dereferenceable(24) %5) #3
  ret ptr %6
}

; Function Attrs: mustprogress nounwind uwtable
define internal noundef ptr @_ZNSt23_Sp_counted_ptr_inplaceIN2cv12cpu_baseline12_GLOBAL__N_117MorphColumnFilterINS2_5MaxOpIsEENS2_16MorphColumnNoVecEEESaIvELN9__gnu_cxx12_Lock_policyE2EE14_M_get_deleterERKSt9type_info(ptr noundef nonnull align 8 dereferenceable(40) %0, ptr noundef nonnull align 8 dereferenceable(16) %1) unnamed_addr #6 align 2 {
  %3 = alloca ptr, align 8
  %4 = alloca ptr, align 8
  %5 = alloca ptr, align 8
  %6 = alloca ptr, align 8
  store ptr %0, ptr %4, align 8
  store ptr %1, ptr %5, align 8
  %7 = load ptr, ptr %4, align 8
  %8 = call noundef ptr @_ZNSt23_Sp_counted_ptr_inplaceIN2cv12cpu_baseline12_GLOBAL__N_117MorphColumnFilterINS2_5MaxOpIsEENS2_16MorphColumnNoVecEEESaIvELN9__gnu_cxx12_Lock_policyE2EE6_M_ptrEv(ptr noundef nonnull align 8 dereferenceable(40) %7) #3
  store ptr %8, ptr %6, align 8
  %9 = load ptr, ptr %5, align 8
  %10 = call noundef nonnull align 8 dereferenceable(16) ptr @_ZNSt19_Sp_make_shared_tag5_S_tiEv() #3
  %11 = icmp eq ptr %9, %10
  br i1 %11, label %15, label %12

12:                                               ; preds = %2
  %13 = load ptr, ptr %5, align 8
  %14 = call noundef zeroext i1 @_ZNKSt9type_infoeqERKS_(ptr noundef nonnull align 8 dereferenceable(16) %13, ptr noundef nonnull align 8 dereferenceable(16) @_ZTISt19_Sp_make_shared_tag) #3
  br i1 %14, label %15, label %17

15:                                               ; preds = %12, %2
  %16 = load ptr, ptr %6, align 8
  store ptr %16, ptr %3, align 8
  br label %18

17:                                               ; preds = %12
  store ptr null, ptr %3, align 8
  br label %18

18:                                               ; preds = %17, %15
  %19 = load ptr, ptr %3, align 8
  ret ptr %19
}